target datalayout = "e-m:e-p270:32:32-p271:32:32-p272:64:64-i64:64-i128:128-f80:128-n8:16:32:64-S128"
target triple = "x86_64-pc-linux-gnu"

%struct._e_addr_resolve = type { i8, i8, i8, i8, i8, i8, i8, i8, i8 }
%struct.hashipv4 = type { i32, i8, [16 x i8], [256 x i8], [19 x i8] }

@gbl_resolv_flags = global %struct._e_addr_resolve { i8 1, i8 0, i8 0, i8 1, i8 0, i8 1, i8 0, i8 0, i8 1 }, align 1

; Function Attrs: null_pointer_is_valid sspstrong uwtable
define ptr @get_hostname_wmem(ptr noundef %0, i32 noundef %1) #3 {
  %3 = alloca ptr, align 8
  %4 = alloca ptr, align 8
  %5 = alloca i32, align 4
  %6 = alloca ptr, align 8
  store ptr %0, ptr %4, align 8
  store i32 %1, ptr %5, align 4
  %7 = load i8, ptr getelementptr inbounds nuw (%struct._e_addr_resolve, ptr @gbl_resolv_flags, i32 0, i32 1), align 1, !range !8, !noundef !9
  %8 = trunc i8 %7 to i1
  br i1 %8, label %12, label %9

9:                                                ; preds = %2
  %10 = load ptr, ptr %4, align 8
  %11 = call ptr @ip_addr_to_str(ptr noundef %10, ptr noundef %5)
  store ptr %11, ptr %3, align 8
  br label %26

12:                                               ; preds = %2
  call void @llvm.lifetime.start.p0(i64 8, ptr %6) #16
  %13 = load i32, ptr %5, align 4
  %14 = call ptr @host_lookup(i32 noundef %13)
  store ptr %14, ptr %6, align 8
  %15 = load ptr, ptr %6, align 8
  %16 = getelementptr inbounds nuw %struct.hashipv4, ptr %15, i32 0, i32 1
  %17 = load i8, ptr %16, align 4
  %18 = zext i8 %17 to i32
  %19 = or i32 %18, 4
  %20 = trunc i32 %19 to i8
  store i8 %20, ptr %16, align 4
  %21 = load ptr, ptr %4, align 8
  %22 = load ptr, ptr %6, align 8
  %23 = getelementptr inbounds nuw %struct.hashipv4, ptr %22, i32 0, i32 3
  %24 = getelementptr inbounds [256 x i8], ptr %23, i64 0, i64 0
  %25 = call noalias ptr @wmem_strdup(ptr noundef %21, ptr noundef %24)
  store ptr %25, ptr %3, align 8
  call void @llvm.lifetime.end.p0(i64 8, ptr %6) #16
  br label %26

26:                                               ; preds = %12, %9
  %27 = load ptr, ptr %3, align 8
  ret ptr %27
}