; Function Attrs: null_pointer_is_valid sspstrong uwtable
define ptr @get_hostname_wmem(ptr noundef %0, i32 noundef %1) local_unnamed_addr #3 {
  %3 = alloca i32, align 4
  store i32 %1, ptr %3, align 4
  %4 = load i8, ptr getelementptr inbounds nuw (i8, ptr @gbl_resolv_flags, i64 1), align 1, !range !16, !noundef !17
  %5 = trunc nuw i8 %4 to i1
  br i1 %5, label %8, label %6

6:                                                ; preds = %2
  %7 = call ptr @ip_addr_to_str(ptr noundef %0, ptr noundef nonnull %3)
  br label %15

8:                                                ; preds = %2
  %9 = tail call fastcc ptr @host_lookup(i32 noundef %1)
  %10 = getelementptr inbounds nuw i8, ptr %9, i64 4
  %11 = load i8, ptr %10, align 4
  %12 = or i8 %11, 4
  store i8 %12, ptr %10, align 4
  %13 = getelementptr inbounds nuw i8, ptr %9, i64 21
  %14 = tail call noalias ptr @wmem_strdup(ptr noundef %0, ptr noundef nonnull %13)
  br label %15

15:                                               ; preds = %8, %6
  %.0 = phi ptr [ %14, %8 ], [ %7, %6 ]
  ret ptr %.0
}